Certificate:
    Data:
        Version: 3 (0x2)
        Serial Number: 2 (0x2)
    Signature Algorithm: sha1WithRSAEncryption
        Issuer: C=AU, ST=Western, O=Example LTD, OU=ExampleDep, CN=ca/emailAddress=ca@ca.com
        Validity
            Not Before: Jun 16 18:31:02 2013 GMT
            Not After : Jun 16 18:31:02 2015 GMT
        Subject: C=AU, ST=Western, O=Example LTD, OU=ExampleDep, CN=bad/emailAddress=bad@bad.com
        Subject Public Key Info:
            Public Key Algorithm: rsaEncryption
                Public-Key: (1024 bit)
                Modulus:
                    00:cb:59:11:56:8c:f0:15:59:d8:de:dd:98:9f:ff:
                    11:9f:ef:34:f1:02:ea:42:26:8f:64:22:5e:e6:bc:
                    21:64:90:8e:1b:85:03:58:00:e3:f5:23:69:66:3a:
                    58:b8:36:6b:2c:43:a9:ef:c6:31:df:88:01:03:95:
                    47:25:4a:21:17:ad:fd:ef:0a:01:9d:ba:96:00:36:
                    7a:1d:68:17:be:96:48:99:35:cd:36:14:e2:e6:7f:
                    93:79:92:33:6f:d6:48:0f:67:4a:6d:bc:21:97:8b:
                    37:35:78:fa:98:74:3c:82:59:35:02:1a:61:89:ec:
                    82:e3:dc:05:78:6b:bc:34:59
                Exponent: 65537 (0x10001)
        X509v3 extensions:
            X509v3 Basic Constraints: 
                CA:FALSE
            Netscape Comment: 
                OpenSSL Generated Certificate
            X509v3 Subject Key Identifier: 
                63:52:CF:25:8B:0B:9B:0D:45:BE:DD:2D:92:60:C1:6C:E6:72:B3:10
            X509v3 Authority Key Identifier: 
                DirName:/C=AU/ST=Western/O=Example LTD/OU=ExampleDep/CN=ca/emailAddress=ca@ca.com
                serial:C2:62:33:99:17:A4:3F:25

    Signature Algorithm: sha1WithRSAEncryption
         3d:dd:19:23:50:cb:c9:11:08:66:29:3b:60:cb:b8:13:40:23:
         ad:77:05:09:cc:b7:bf:c8:cb:24:1e:a5:a5:09:eb:3c:f7:5a:
         b0:0c:7d:d9:62:f6:58:42:66:da:ec:7c:50:68:95:bb:d0:60:
         f9:a1:40:e8:bb:9a:a7:04:8b:65:86:0c:4c:44:ac:80:86:cc:
         f7:7b:76:eb:ae:cb:9c:17:54:16:c1:21:92:ee:a8:6a:58:3b:
         5e:56:ac:97:e7:5a:67:0f:97:1b:45:fd:e9:2a:48:19:08:c6:
         f7:37:87:39:23:6c:4d:ca:dc:c1:f3:56:fa:b3:fc:91:39:98:
         c4:71
-----BEGIN CERTIFICATE-----
MIIDRzCCArCgAwIBAgIBAjANBgkqhkiG9w0BAQUFADBxMQswCQYDVQQGEwJBVTEQ
MA4GA1UECAwHV2VzdGVybjEUMBIGA1UECgwLRXhhbXBsZSBMVEQxEzARBgNVBAsM
CkV4YW1wbGVEZXAxCzAJBgNVBAMMAmNhMRgwFgYJKoZIhvcNAQkBFgljYUBjYS5j
b20wHhcNMTMwNjE2MTgzMTAyWhcNMTUwNjE2MTgzMTAyWjB0MQswCQYDVQQGEwJB
VTEQMA4GA1UECAwHV2VzdGVybjEUMBIGA1UECgwLRXhhbXBsZSBMVEQxEzARBgNV
BAsMCkV4YW1wbGVEZXAxDDAKBgNVBAMMA2JhZDEaMBgGCSqGSIb3DQEJARYLYmFk
QGJhZC5jb20wgZ8wDQYJKoZIhvcNAQEBBQADgY0AMIGJAoGBAMtZEVaM8BVZ2N7d
mJ//EZ/vNPEC6kImj2QiXua8IWSQjhuFA1gA4/UjaWY6WLg2ayxDqe/GMd+IAQOV
RyVKIRet/e8KAZ26lgA2eh1oF76WSJk1zTYU4uZ/k3mSM2/WSA9nSm28IZeLNzV4
+ph0PIJZNQIaYYnsguPcBXhrvDRZAgMBAAGjgeswgegwCQYDVR0TBAIwADAsBglg
hkgBhvhCAQ0EHxYdT3BlblNTTCBHZW5lcmF0ZWQgQ2VydGlmaWNhdGUwHQYDVR0O
BBYEFGNSzyWLC5sNRb7dLZJgwWzmcrMQMIGNBgNVHSMEgYUwgYKhdaRzMHExCzAJ
BgNVBAYTAkFVMRAwDgYDVQQIDAdXZXN0ZXJuMRQwEgYDVQQKDAtFeGFtcGxlIExU
RDETMBEGA1UECwwKRXhhbXBsZURlcDELMAkGA1UEAwwCY2ExGDAWBgkqhkiG9w0B
CQEWCWNhQGNhLmNvbYIJAMJiM5kXpD8lMA0GCSqGSIb3DQEBBQUAA4GBAD3dGSNQ
y8kRCGYpO2DLuBNAI613BQnMt7/IyyQepaUJ6zz3WrAMfdli9lhCZtrsfFBolbvQ
YPmhQOi7mqcEi2WGDExErICGzPd7duuuy5wXVBbBIZLuqGpYO15WrJfnWmcPlxtF
/ekqSBkIxvc3hzkjbE3K3MHzVvqz/JE5mMRx
-----END CERTIFICATE-----
