Certificate:
    Data:
        Version: 3 (0x2)
        Serial Number: 2 (0x2)
    Signature Algorithm: sha1WithRSAEncryption
        Issuer: C=AU, ST=Western, O=Example LTD, OU=ExampleDep, CN=ca/emailAddress=ca@ca.com
        Validity
            Not Before: Jun 25 12:16:36 2013 GMT
            Not After : Jun 25 12:16:36 2015 GMT
        Subject: C=AU, ST=Western, O=Example LTD, OU=ExampleDep, CN=badbad/emailAddress=badbad@badbad.com
        Subject Public Key Info:
            Public Key Algorithm: rsaEncryption
                Public-Key: (1024 bit)
                Modulus:
                    00:c2:99:12:e0:f3:a9:0f:29:90:5f:fa:4c:6a:0c:
                    13:8f:2f:a1:d6:53:e2:3a:01:0b:25:92:56:f2:cd:
                    a1:79:8e:4b:a6:4d:1d:d3:ea:cc:37:61:47:22:81:
                    46:71:1e:fd:83:32:c0:b3:61:e3:c9:fb:76:91:6a:
                    7c:c2:a2:c9:02:6c:6e:56:45:6d:be:90:83:08:51:
                    87:d2:de:6a:ab:00:f3:3e:71:1f:9f:67:a7:81:10:
                    51:a4:88:16:22:68:b3:88:c2:15:7d:81:be:25:5d:
                    32:b0:44:db:37:e7:03:d5:7a:fe:34:c2:df:34:52:
                    24:14:89:de:d5:ab:e7:24:db
                Exponent: 65537 (0x10001)
        X509v3 extensions:
            X509v3 Basic Constraints: 
                CA:FALSE
            Netscape Comment: 
                OpenSSL Generated Certificate
            X509v3 Subject Key Identifier: 
                5C:A9:3E:D3:12:BF:BA:EE:BC:1A:BC:D0:AF:92:7E:7D:85:92:56:C0
            X509v3 Authority Key Identifier: 
                DirName:/C=AU/ST=Western/O=Example LTD/OU=ExampleDep/CN=ca/emailAddress=ca@ca.com
                serial:E2:ED:39:8B:7C:9B:C9:82

    Signature Algorithm: sha1WithRSAEncryption
         59:06:0a:85:a4:a6:77:ec:e8:33:41:3b:a2:71:76:04:4a:1b:
         1a:06:e2:80:ba:f7:84:25:cd:1d:56:32:87:62:d5:0c:95:49:
         1f:6e:e4:d8:5d:9c:e6:82:06:29:05:f8:33:d5:3e:60:b4:26:
         0d:a9:77:26:29:fe:42:0d:5a:d5:a2:93:ac:6d:fa:f2:d0:00:
         f7:16:0c:77:7f:ca:ea:0b:13:a5:95:29:b6:f1:52:f2:23:fd:
         4f:7f:5f:37:6c:8e:48:c6:87:c5:aa:a1:4c:90:f4:96:fe:e8:
         f4:f6:17:f1:a0:5e:0c:2f:f7:88:a5:bc:d4:e3:56:d0:b8:d0:
         7e:8d
-----BEGIN CERTIFICATE-----
MIIDUDCCArmgAwIBAgIBAjANBgkqhkiG9w0BAQUFADBxMQswCQYDVQQGEwJBVTEQ
MA4GA1UECAwHV2VzdGVybjEUMBIGA1UECgwLRXhhbXBsZSBMVEQxEzARBgNVBAsM
CkV4YW1wbGVEZXAxCzAJBgNVBAMMAmNhMRgwFgYJKoZIhvcNAQkBFgljYUBjYS5j
b20wHhcNMTMwNjI1MTIxNjM2WhcNMTUwNjI1MTIxNjM2WjB9MQswCQYDVQQGEwJB
VTEQMA4GA1UECAwHV2VzdGVybjEUMBIGA1UECgwLRXhhbXBsZSBMVEQxEzARBgNV
BAsMCkV4YW1wbGVEZXAxDzANBgNVBAMMBmJhZGJhZDEgMB4GCSqGSIb3DQEJARYR
YmFkYmFkQGJhZGJhZC5jb20wgZ8wDQYJKoZIhvcNAQEBBQADgY0AMIGJAoGBAMKZ
EuDzqQ8pkF/6TGoME48vodZT4joBCyWSVvLNoXmOS6ZNHdPqzDdhRyKBRnEe/YMy
wLNh48n7dpFqfMKiyQJsblZFbb6QgwhRh9LeaqsA8z5xH59np4EQUaSIFiJos4jC
FX2BviVdMrBE2zfnA9V6/jTC3zRSJBSJ3tWr5yTbAgMBAAGjgeswgegwCQYDVR0T
BAIwADAsBglghkgBhvhCAQ0EHxYdT3BlblNTTCBHZW5lcmF0ZWQgQ2VydGlmaWNh
dGUwHQYDVR0OBBYEFFypPtMSv7ruvBq80K+Sfn2FklbAMIGNBgNVHSMEgYUwgYKh
daRzMHExCzAJBgNVBAYTAkFVMRAwDgYDVQQIDAdXZXN0ZXJuMRQwEgYDVQQKDAtF
eGFtcGxlIExURDETMBEGA1UECwwKRXhhbXBsZURlcDELMAkGA1UEAwwCY2ExGDAW
BgkqhkiG9w0BCQEWCWNhQGNhLmNvbYIJAOLtOYt8m8mCMA0GCSqGSIb3DQEBBQUA
A4GBAFkGCoWkpnfs6DNBO6JxdgRKGxoG4oC694QlzR1WModi1QyVSR9u5NhdnOaC
BikF+DPVPmC0Jg2pdyYp/kINWtWik6xt+vLQAPcWDHd/yuoLE6WVKbbxUvIj/U9/
XzdsjkjGh8WqoUyQ9Jb+6PT2F/GgXgwv94ilvNTjVtC40H6N
-----END CERTIFICATE-----
