Certificate:
    Data:
        Version: 3 (0x2)
        Serial Number: 2 (0x2)
    Signature Algorithm: sha1WithRSAEncryption
        Issuer: C=AU, ST=Western, O=Example LTD, OU=ExampleDep, CN=ca/emailAddress=ca@ca.com
        Validity
            Not Before: Jun 26 18:29:42 2013 GMT
            Not After : Jun 26 18:29:42 2015 GMT
        Subject: C=AU, ST=Western, O=Example LTD, OU=ExampleDep, CN=badbad/emailAddress=badbad@badbad.com
        Subject Public Key Info:
            Public Key Algorithm: rsaEncryption
                Public-Key: (1024 bit)
                Modulus:
                    00:9f:54:ad:c2:c7:86:b9:c8:c1:e2:a8:2d:26:24:
                    f8:e4:ac:5d:03:86:2a:20:b1:55:a3:92:d8:d8:86:
                    7e:34:be:94:02:26:e9:90:4a:de:6d:30:54:e1:25:
                    1e:d5:aa:71:f0:c4:88:df:06:76:25:85:1f:b8:d9:
                    de:27:95:50:e4:7f:7d:e1:3e:17:37:d2:b0:c2:16:
                    50:8f:7d:81:e2:4c:c7:e4:0f:86:39:9e:f8:10:7c:
                    18:96:89:f0:57:52:59:e8:e4:59:3d:b8:65:1f:82:
                    be:b6:e9:66:79:ff:02:6c:ca:42:59:06:0f:65:b4:
                    0b:b5:fe:5b:f1:f9:b8:f2:1d
                Exponent: 65537 (0x10001)
        X509v3 extensions:
            X509v3 Basic Constraints: 
                CA:FALSE
            Netscape Comment: 
                OpenSSL Generated Certificate
            X509v3 Subject Key Identifier: 
                D9:65:F0:0B:68:DF:0B:05:5B:52:CC:D0:82:39:4F:28:97:22:5D:98
            X509v3 Authority Key Identifier: 
                DirName:/C=AU/ST=Western/O=Example LTD/OU=ExampleDep/CN=ca/emailAddress=ca@ca.com
                serial:B8:C7:78:4F:0D:95:F7:59

    Signature Algorithm: sha1WithRSAEncryption
         6e:2d:51:56:a5:06:bb:8e:ee:0e:f2:c3:44:da:1e:06:87:f6:
         12:48:4b:b9:5e:d3:42:d0:48:3b:1a:bc:d5:8a:a7:ee:b4:a5:
         27:c3:05:b6:83:6d:34:27:77:b1:d3:99:d3:1d:b4:dc:bb:0b:
         83:6b:90:4f:ba:4e:75:9d:12:88:f5:fb:3b:d7:a9:e6:c5:b8:
         91:76:63:a4:82:09:05:c6:29:e1:27:39:f4:8f:aa:b2:02:4c:
         98:25:a4:c1:49:29:46:a9:18:ae:73:a7:cf:16:78:3a:63:0d:
         a2:d3:88:68:fa:79:49:ec:47:69:cc:ca:18:c6:bf:83:aa:02:
         0c:1f
-----BEGIN CERTIFICATE-----
MIIDUDCCArmgAwIBAgIBAjANBgkqhkiG9w0BAQUFADBxMQswCQYDVQQGEwJBVTEQ
MA4GA1UECAwHV2VzdGVybjEUMBIGA1UECgwLRXhhbXBsZSBMVEQxEzARBgNVBAsM
CkV4YW1wbGVEZXAxCzAJBgNVBAMMAmNhMRgwFgYJKoZIhvcNAQkBFgljYUBjYS5j
b20wHhcNMTMwNjI2MTgyOTQyWhcNMTUwNjI2MTgyOTQyWjB9MQswCQYDVQQGEwJB
VTEQMA4GA1UECAwHV2VzdGVybjEUMBIGA1UECgwLRXhhbXBsZSBMVEQxEzARBgNV
BAsMCkV4YW1wbGVEZXAxDzANBgNVBAMMBmJhZGJhZDEgMB4GCSqGSIb3DQEJARYR
YmFkYmFkQGJhZGJhZC5jb20wgZ8wDQYJKoZIhvcNAQEBBQADgY0AMIGJAoGBAJ9U
rcLHhrnIweKoLSYk+OSsXQOGKiCxVaOS2NiGfjS+lAIm6ZBK3m0wVOElHtWqcfDE
iN8GdiWFH7jZ3ieVUOR/feE+FzfSsMIWUI99geJMx+QPhjme+BB8GJaJ8FdSWejk
WT24ZR+CvrbpZnn/AmzKQlkGD2W0C7X+W/H5uPIdAgMBAAGjgeswgegwCQYDVR0T
BAIwADAsBglghkgBhvhCAQ0EHxYdT3BlblNTTCBHZW5lcmF0ZWQgQ2VydGlmaWNh
dGUwHQYDVR0OBBYEFNll8Ato3wsFW1LM0II5TyiXIl2YMIGNBgNVHSMEgYUwgYKh
daRzMHExCzAJBgNVBAYTAkFVMRAwDgYDVQQIDAdXZXN0ZXJuMRQwEgYDVQQKDAtF
eGFtcGxlIExURDETMBEGA1UECwwKRXhhbXBsZURlcDELMAkGA1UEAwwCY2ExGDAW
BgkqhkiG9w0BCQEWCWNhQGNhLmNvbYIJALjHeE8NlfdZMA0GCSqGSIb3DQEBBQUA
A4GBAG4tUValBruO7g7yw0TaHgaH9hJIS7le00LQSDsavNWKp+60pSfDBbaDbTQn
d7HTmdMdtNy7C4NrkE+6TnWdEoj1+zvXqebFuJF2Y6SCCQXGKeEnOfSPqrICTJgl
pMFJKUapGK5zp88WeDpjDaLTiGj6eUnsR2nMyhjGv4OqAgwf
-----END CERTIFICATE-----
