Certificate:
    Data:
        Version: 3 (0x2)
        Serial Number: 0 (0x0)
    Signature Algorithm: sha1WithRSAEncryption
        Issuer: C=AU, ST=Western, O=Example LTD, OU=ExampleDep, CN=badbad/emailAddress=badbad@badbad.com
        Validity
            Not Before: Jun 25 12:16:36 2013 GMT
            Not After : Jun 25 12:16:36 2015 GMT
        Subject: C=AU, ST=Western, O=Example LTD, OU=ExampleDep, CN=client/emailAddress=client@client.com
        Subject Public Key Info:
            Public Key Algorithm: rsaEncryption
                Public-Key: (1024 bit)
                Modulus:
                    00:ab:71:4b:2c:9b:ee:ee:50:c8:4f:1d:09:d7:77:
                    57:33:e5:3e:aa:ba:76:ab:c8:59:fc:3b:74:83:40:
                    49:9d:8f:66:81:56:92:a8:57:58:c5:58:c9:df:df:
                    ab:3c:dd:30:36:64:73:2c:ca:48:56:ef:ce:07:a2:
                    fd:fe:31:3c:1a:bb:f1:fd:34:b8:6d:20:a1:c8:54:
                    87:e8:41:bf:5a:a3:ec:f6:42:ea:a7:f0:02:dd:d4:
                    d4:b6:85:3b:ec:71:5f:99:d6:7c:25:ff:e0:b6:fd:
                    19:0d:d9:fa:7a:d8:f4:8e:08:00:02:49:10:01:34:
                    7d:73:49:cc:f8:b9:c2:fb:af
                Exponent: 65537 (0x10001)
        X509v3 extensions:
            X509v3 Basic Constraints: 
                CA:FALSE
            Netscape Comment: 
                OpenSSL Generated Certificate
            X509v3 Subject Key Identifier: 
                70:76:12:1D:07:30:00:27:BE:F7:75:B8:C2:65:0F:79:75:DE:58:6A
            X509v3 Authority Key Identifier: 
                DirName:/C=AU/ST=Western/O=Example LTD/OU=ExampleDep/CN=badbad/emailAddress=badbad@badbad.com
                serial:A8:36:33:C5:8C:D0:BE:BF

    Signature Algorithm: sha1WithRSAEncryption
         04:df:48:2f:9b:e0:85:1a:03:f4:bd:85:67:a6:f7:b1:f1:0e:
         3c:99:24:15:6f:48:41:85:22:e9:6f:34:f1:18:49:0c:13:6e:
         09:07:f0:7e:4c:1f:5d:38:7e:33:e3:55:04:7c:ac:77:af:ca:
         c7:b5:e6:47:94:85:b0:1c:4a:d4:80:e0:89:ba:0d:6e:1e:fd:
         7d:14:32:c3:7f:1a:15:a9:cc:f9:bf:f5:7d:e1:d4:25:63:51:
         b1:f9:a6:24:6e:36:2d:eb:c4:58:5b:f2:69:c6:dc:29:06:86:
         14:62:ff:64:57:7e:18:a4:7f:0a:2d:bc:c8:96:18:cb:cc:64:
         a7:9e
-----BEGIN CERTIFICATE-----
MIIDaTCCAtKgAwIBAgIBADANBgkqhkiG9w0BAQUFADB9MQswCQYDVQQGEwJBVTEQ
MA4GA1UECAwHV2VzdGVybjEUMBIGA1UECgwLRXhhbXBsZSBMVEQxEzARBgNVBAsM
CkV4YW1wbGVEZXAxDzANBgNVBAMMBmJhZGJhZDEgMB4GCSqGSIb3DQEJARYRYmFk
YmFkQGJhZGJhZC5jb20wHhcNMTMwNjI1MTIxNjM2WhcNMTUwNjI1MTIxNjM2WjB9
MQswCQYDVQQGEwJBVTEQMA4GA1UECAwHV2VzdGVybjEUMBIGA1UECgwLRXhhbXBs
ZSBMVEQxEzARBgNVBAsMCkV4YW1wbGVEZXAxDzANBgNVBAMMBmNsaWVudDEgMB4G
CSqGSIb3DQEJARYRY2xpZW50QGNsaWVudC5jb20wgZ8wDQYJKoZIhvcNAQEBBQAD
gY0AMIGJAoGBAKtxSyyb7u5QyE8dCdd3VzPlPqq6dqvIWfw7dINASZ2PZoFWkqhX
WMVYyd/fqzzdMDZkcyzKSFbvzgei/f4xPBq78f00uG0gochUh+hBv1qj7PZC6qfw
At3U1LaFO+xxX5nWfCX/4Lb9GQ3Z+nrY9I4IAAJJEAE0fXNJzPi5wvuvAgMBAAGj
gfgwgfUwCQYDVR0TBAIwADAsBglghkgBhvhCAQ0EHxYdT3BlblNTTCBHZW5lcmF0
ZWQgQ2VydGlmaWNhdGUwHQYDVR0OBBYEFHB2Eh0HMAAnvvd1uMJlD3l13lhqMIGa
BgNVHSMEgZIwgY+hgYGkfzB9MQswCQYDVQQGEwJBVTEQMA4GA1UECAwHV2VzdGVy
bjEUMBIGA1UECgwLRXhhbXBsZSBMVEQxEzARBgNVBAsMCkV4YW1wbGVEZXAxDzAN
BgNVBAMMBmJhZGJhZDEgMB4GCSqGSIb3DQEJARYRYmFkYmFkQGJhZGJhZC5jb22C
CQCoNjPFjNC+vzANBgkqhkiG9w0BAQUFAAOBgQAE30gvm+CFGgP0vYVnpvex8Q48
mSQVb0hBhSLpbzTxGEkME24JB/B+TB9dOH4z41UEfKx3r8rHteZHlIWwHErUgOCJ
ug1uHv19FDLDfxoVqcz5v/V94dQlY1Gx+aYkbjYt68RYW/JpxtwpBoYUYv9kV34Y
pH8KLbzIlhjLzGSnng==
-----END CERTIFICATE-----
