Certificate:
    Data:
        Version: 3 (0x2)
        Serial Number: 0 (0x0)
    Signature Algorithm: sha1WithRSAEncryption
        Issuer: C=AU, ST=Western, O=Example LTD, OU=ExampleDep, CN=ca/emailAddress=ca@ca.com
        Validity
            Not Before: Jun 25 12:16:36 2013 GMT
            Not After : Jun 25 12:16:36 2015 GMT
        Subject: C=AU, ST=Western, O=Example LTD, OU=ExampleDep, CN=client/emailAddress=client@client.com
        Subject Public Key Info:
            Public Key Algorithm: rsaEncryption
                Public-Key: (1024 bit)
                Modulus:
                    00:ab:71:4b:2c:9b:ee:ee:50:c8:4f:1d:09:d7:77:
                    57:33:e5:3e:aa:ba:76:ab:c8:59:fc:3b:74:83:40:
                    49:9d:8f:66:81:56:92:a8:57:58:c5:58:c9:df:df:
                    ab:3c:dd:30:36:64:73:2c:ca:48:56:ef:ce:07:a2:
                    fd:fe:31:3c:1a:bb:f1:fd:34:b8:6d:20:a1:c8:54:
                    87:e8:41:bf:5a:a3:ec:f6:42:ea:a7:f0:02:dd:d4:
                    d4:b6:85:3b:ec:71:5f:99:d6:7c:25:ff:e0:b6:fd:
                    19:0d:d9:fa:7a:d8:f4:8e:08:00:02:49:10:01:34:
                    7d:73:49:cc:f8:b9:c2:fb:af
                Exponent: 65537 (0x10001)
        X509v3 extensions:
            X509v3 Basic Constraints: 
                CA:FALSE
            Netscape Comment: 
                OpenSSL Generated Certificate
            X509v3 Subject Key Identifier: 
                70:76:12:1D:07:30:00:27:BE:F7:75:B8:C2:65:0F:79:75:DE:58:6A
            X509v3 Authority Key Identifier: 
                DirName:/C=AU/ST=Western/O=Example LTD/OU=ExampleDep/CN=ca/emailAddress=ca@ca.com
                serial:E2:ED:39:8B:7C:9B:C9:82

    Signature Algorithm: sha1WithRSAEncryption
         76:92:d8:a4:db:b1:ba:36:7d:bc:73:30:5d:ff:d2:98:6a:fe:
         40:bd:89:c4:26:00:07:1d:2a:0d:50:fc:07:7e:ec:b2:0e:e9:
         8a:82:dc:f5:c0:6a:ea:ae:ff:36:b7:07:55:73:9d:c9:59:b9:
         27:a0:91:f4:f3:bd:af:9c:63:66:85:dc:a8:52:32:51:2f:ac:
         0a:2e:d8:9a:0e:2e:70:4d:a2:1f:f7:4b:d3:8d:3c:1c:a6:e2:
         fe:19:49:8d:dd:2e:fc:ad:f8:07:0f:bc:4f:83:8b:65:11:74:
         4f:1d:82:73:a1:04:a8:c6:fa:c0:b0:53:61:bd:fe:fc:43:43:
         3f:e0
-----BEGIN CERTIFICATE-----
MIIDUDCCArmgAwIBAgIBADANBgkqhkiG9w0BAQUFADBxMQswCQYDVQQGEwJBVTEQ
MA4GA1UECAwHV2VzdGVybjEUMBIGA1UECgwLRXhhbXBsZSBMVEQxEzARBgNVBAsM
CkV4YW1wbGVEZXAxCzAJBgNVBAMMAmNhMRgwFgYJKoZIhvcNAQkBFgljYUBjYS5j
b20wHhcNMTMwNjI1MTIxNjM2WhcNMTUwNjI1MTIxNjM2WjB9MQswCQYDVQQGEwJB
VTEQMA4GA1UECAwHV2VzdGVybjEUMBIGA1UECgwLRXhhbXBsZSBMVEQxEzARBgNV
BAsMCkV4YW1wbGVEZXAxDzANBgNVBAMMBmNsaWVudDEgMB4GCSqGSIb3DQEJARYR
Y2xpZW50QGNsaWVudC5jb20wgZ8wDQYJKoZIhvcNAQEBBQADgY0AMIGJAoGBAKtx
Syyb7u5QyE8dCdd3VzPlPqq6dqvIWfw7dINASZ2PZoFWkqhXWMVYyd/fqzzdMDZk
cyzKSFbvzgei/f4xPBq78f00uG0gochUh+hBv1qj7PZC6qfwAt3U1LaFO+xxX5nW
fCX/4Lb9GQ3Z+nrY9I4IAAJJEAE0fXNJzPi5wvuvAgMBAAGjgeswgegwCQYDVR0T
BAIwADAsBglghkgBhvhCAQ0EHxYdT3BlblNTTCBHZW5lcmF0ZWQgQ2VydGlmaWNh
dGUwHQYDVR0OBBYEFHB2Eh0HMAAnvvd1uMJlD3l13lhqMIGNBgNVHSMEgYUwgYKh
daRzMHExCzAJBgNVBAYTAkFVMRAwDgYDVQQIDAdXZXN0ZXJuMRQwEgYDVQQKDAtF
eGFtcGxlIExURDETMBEGA1UECwwKRXhhbXBsZURlcDELMAkGA1UEAwwCY2ExGDAW
BgkqhkiG9w0BCQEWCWNhQGNhLmNvbYIJAOLtOYt8m8mCMA0GCSqGSIb3DQEBBQUA
A4GBAHaS2KTbsbo2fbxzMF3/0phq/kC9icQmAAcdKg1Q/Ad+7LIO6YqC3PXAauqu
/za3B1VznclZuSegkfTzva+cY2aF3KhSMlEvrAou2JoOLnBNoh/3S9ONPBym4v4Z
SY3dLvyt+AcPvE+Di2URdE8dgnOhBKjG+sCwU2G9/vxDQz/g
-----END CERTIFICATE-----
