Certificate:
    Data:
        Version: 3 (0x2)
        Serial Number: 0 (0x0)
    Signature Algorithm: sha1WithRSAEncryption
        Issuer: C=AU, ST=Western, O=Example LTD, OU=ExampleDep, CN=ca/emailAddress=ca@ca.com
        Validity
            Not Before: Jun 26 18:29:42 2013 GMT
            Not After : Jun 26 18:29:42 2015 GMT
        Subject: C=AU, ST=Western, O=Example LTD, OU=ExampleDep, CN=client/emailAddress=client@client.com
        Subject Public Key Info:
            Public Key Algorithm: rsaEncryption
                Public-Key: (1024 bit)
                Modulus:
                    00:e2:53:ac:7d:33:0a:1e:6d:74:0c:67:c9:e9:8d:
                    26:eb:58:3c:83:86:17:40:21:e4:6a:fb:df:07:86:
                    ff:37:3b:e9:58:77:c6:35:8d:8a:dd:81:cf:b1:66:
                    42:5a:95:7b:e9:db:52:3e:5b:98:24:d8:6a:b9:e2:
                    96:d8:3f:04:70:b3:dd:68:1a:5d:9b:82:d2:24:64:
                    61:b9:4a:06:aa:0a:8e:6f:34:04:93:7b:d3:c2:39:
                    d0:37:ed:8f:b3:a1:a2:5b:91:df:1d:40:3a:10:8f:
                    fa:d9:ca:27:56:64:37:56:70:61:e4:b8:1a:7d:25:
                    8a:94:88:0a:17:38:0a:7c:13
                Exponent: 65537 (0x10001)
        X509v3 extensions:
            X509v3 Basic Constraints: 
                CA:FALSE
            Netscape Comment: 
                OpenSSL Generated Certificate
            X509v3 Subject Key Identifier: 
                10:24:2C:8B:78:F3:E5:DE:60:A7:17:2B:3B:45:57:5A:AD:F6:93:90
            X509v3 Authority Key Identifier: 
                DirName:/C=AU/ST=Western/O=Example LTD/OU=ExampleDep/CN=ca/emailAddress=ca@ca.com
                serial:B8:C7:78:4F:0D:95:F7:59

    Signature Algorithm: sha1WithRSAEncryption
         a0:b0:88:37:2a:85:f2:14:3f:77:d2:91:7d:58:16:d4:5c:14:
         06:b8:6a:76:bd:6b:29:73:8f:a9:00:da:ad:fa:7f:55:ca:bd:
         7d:5c:b3:18:87:93:9b:de:7c:20:b5:8b:99:2d:61:eb:2e:6c:
         0e:da:f4:ba:5b:93:38:d2:89:78:b4:7a:73:9e:48:61:be:93:
         01:3d:22:56:8a:c2:c0:b7:9d:10:b8:35:42:00:eb:a3:20:83:
         76:ba:3b:a7:0a:45:87:73:1f:8d:8a:01:93:90:a0:e1:f3:2e:
         9e:36:d6:5a:49:67:58:f0:99:06:dd:35:ff:fa:4f:ab:4b:ff:
         60:80
-----BEGIN CERTIFICATE-----
MIIDUDCCArmgAwIBAgIBADANBgkqhkiG9w0BAQUFADBxMQswCQYDVQQGEwJBVTEQ
MA4GA1UECAwHV2VzdGVybjEUMBIGA1UECgwLRXhhbXBsZSBMVEQxEzARBgNVBAsM
CkV4YW1wbGVEZXAxCzAJBgNVBAMMAmNhMRgwFgYJKoZIhvcNAQkBFgljYUBjYS5j
b20wHhcNMTMwNjI2MTgyOTQyWhcNMTUwNjI2MTgyOTQyWjB9MQswCQYDVQQGEwJB
VTEQMA4GA1UECAwHV2VzdGVybjEUMBIGA1UECgwLRXhhbXBsZSBMVEQxEzARBgNV
BAsMCkV4YW1wbGVEZXAxDzANBgNVBAMMBmNsaWVudDEgMB4GCSqGSIb3DQEJARYR
Y2xpZW50QGNsaWVudC5jb20wgZ8wDQYJKoZIhvcNAQEBBQADgY0AMIGJAoGBAOJT
rH0zCh5tdAxnyemNJutYPIOGF0Ah5Gr73weG/zc76Vh3xjWNit2Bz7FmQlqVe+nb
Uj5bmCTYarniltg/BHCz3WgaXZuC0iRkYblKBqoKjm80BJN708I50Dftj7OholuR
3x1AOhCP+tnKJ1ZkN1ZwYeS4Gn0lipSIChc4CnwTAgMBAAGjgeswgegwCQYDVR0T
BAIwADAsBglghkgBhvhCAQ0EHxYdT3BlblNTTCBHZW5lcmF0ZWQgQ2VydGlmaWNh
dGUwHQYDVR0OBBYEFBAkLIt48+XeYKcXKztFV1qt9pOQMIGNBgNVHSMEgYUwgYKh
daRzMHExCzAJBgNVBAYTAkFVMRAwDgYDVQQIDAdXZXN0ZXJuMRQwEgYDVQQKDAtF
eGFtcGxlIExURDETMBEGA1UECwwKRXhhbXBsZURlcDELMAkGA1UEAwwCY2ExGDAW
BgkqhkiG9w0BCQEWCWNhQGNhLmNvbYIJALjHeE8NlfdZMA0GCSqGSIb3DQEBBQUA
A4GBAKCwiDcqhfIUP3fSkX1YFtRcFAa4ana9aylzj6kA2q36f1XKvX1csxiHk5ve
fCC1i5ktYesubA7a9LpbkzjSiXi0enOeSGG+kwE9IlaKwsC3nRC4NUIA66Mgg3a6
O6cKRYdzH42KAZOQoOHzLp421lpJZ1jwmQbdNf/6T6tL/2CA
-----END CERTIFICATE-----
