Certificate:
    Data:
        Version: 3 (0x2)
        Serial Number: 1 (0x1)
    Signature Algorithm: sha1WithRSAEncryption
        Issuer: C=AU, ST=Western, O=Example LTD, OU=ExampleDep, CN=ca/emailAddress=ca@ca.com
        Validity
            Not Before: Jun 26 18:29:42 2013 GMT
            Not After : Jun 26 18:29:42 2015 GMT
        Subject: C=AU, ST=Western, O=Example LTD, OU=ExampleDep, CN=server/emailAddress=server@server.com
        Subject Public Key Info:
            Public Key Algorithm: rsaEncryption
                Public-Key: (1024 bit)
                Modulus:
                    00:de:0e:4c:a9:0d:88:bb:b5:ef:da:cc:a0:cb:7d:
                    f2:b3:4d:07:12:48:29:4b:3d:fd:f3:f8:82:1b:3c:
                    f8:9c:f7:43:83:ad:0c:d3:a6:49:ca:26:2c:c5:b9:
                    e1:ba:f6:ee:dd:bf:ce:52:0a:2e:60:95:11:de:de:
                    3c:7f:9c:26:c5:bc:21:52:5c:f8:16:72:41:ca:76:
                    75:0f:f3:e2:88:d0:fd:0a:20:26:17:8c:3b:4f:91:
                    08:ac:25:1a:dc:fe:47:80:c2:e3:d8:96:3b:c4:ca:
                    fe:af:04:47:08:86:80:dc:c5:b5:46:41:a1:37:cd:
                    89:37:db:f7:81:66:f5:2b:55
                Exponent: 65537 (0x10001)
        X509v3 extensions:
            X509v3 Basic Constraints: 
                CA:FALSE
            Netscape Comment: 
                OpenSSL Generated Certificate
            X509v3 Subject Key Identifier: 
                C0:05:77:DB:11:57:87:59:CB:87:7E:48:47:DE:4A:DE:6D:91:DB:91
            X509v3 Authority Key Identifier: 
                DirName:/C=AU/ST=Western/O=Example LTD/OU=ExampleDep/CN=ca/emailAddress=ca@ca.com
                serial:B8:C7:78:4F:0D:95:F7:59

    Signature Algorithm: sha1WithRSAEncryption
         14:35:43:60:d7:aa:ef:5d:b6:4d:af:b0:9e:78:db:3b:d1:93:
         10:9e:ad:52:04:28:42:e9:5f:10:3e:1a:27:d2:38:84:2b:94:
         1c:4a:a0:df:ac:46:da:0e:01:57:ae:a6:67:25:9e:0a:e9:ee:
         6a:5f:5a:15:bf:4a:d8:ea:47:d2:24:91:ba:32:40:f0:19:74:
         34:3e:cf:10:18:bf:a2:a2:3d:3e:3f:25:26:c3:20:13:df:e0:
         74:0d:b9:08:0c:be:74:70:b4:08:ef:31:da:5e:b6:1b:d5:f6:
         49:c8:be:8e:93:0e:73:64:c2:3b:85:b3:25:d6:4d:88:2d:3b:
         d1:46
-----BEGIN CERTIFICATE-----
MIIDUDCCArmgAwIBAgIBATANBgkqhkiG9w0BAQUFADBxMQswCQYDVQQGEwJBVTEQ
MA4GA1UECAwHV2VzdGVybjEUMBIGA1UECgwLRXhhbXBsZSBMVEQxEzARBgNVBAsM
CkV4YW1wbGVEZXAxCzAJBgNVBAMMAmNhMRgwFgYJKoZIhvcNAQkBFgljYUBjYS5j
b20wHhcNMTMwNjI2MTgyOTQyWhcNMTUwNjI2MTgyOTQyWjB9MQswCQYDVQQGEwJB
VTEQMA4GA1UECAwHV2VzdGVybjEUMBIGA1UECgwLRXhhbXBsZSBMVEQxEzARBgNV
BAsMCkV4YW1wbGVEZXAxDzANBgNVBAMMBnNlcnZlcjEgMB4GCSqGSIb3DQEJARYR
c2VydmVyQHNlcnZlci5jb20wgZ8wDQYJKoZIhvcNAQEBBQADgY0AMIGJAoGBAN4O
TKkNiLu179rMoMt98rNNBxJIKUs9/fP4ghs8+Jz3Q4OtDNOmScomLMW54br27t2/
zlIKLmCVEd7ePH+cJsW8IVJc+BZyQcp2dQ/z4ojQ/QogJheMO0+RCKwlGtz+R4DC
49iWO8TK/q8ERwiGgNzFtUZBoTfNiTfb94Fm9StVAgMBAAGjgeswgegwCQYDVR0T
BAIwADAsBglghkgBhvhCAQ0EHxYdT3BlblNTTCBHZW5lcmF0ZWQgQ2VydGlmaWNh
dGUwHQYDVR0OBBYEFMAFd9sRV4dZy4d+SEfeSt5tkduRMIGNBgNVHSMEgYUwgYKh
daRzMHExCzAJBgNVBAYTAkFVMRAwDgYDVQQIDAdXZXN0ZXJuMRQwEgYDVQQKDAtF
eGFtcGxlIExURDETMBEGA1UECwwKRXhhbXBsZURlcDELMAkGA1UEAwwCY2ExGDAW
BgkqhkiG9w0BCQEWCWNhQGNhLmNvbYIJALjHeE8NlfdZMA0GCSqGSIb3DQEBBQUA
A4GBABQ1Q2DXqu9dtk2vsJ542zvRkxCerVIEKELpXxA+GifSOIQrlBxKoN+sRtoO
AVeupmclngrp7mpfWhW/StjqR9IkkboyQPAZdDQ+zxAYv6KiPT4/JSbDIBPf4HQN
uQgMvnRwtAjvMdpethvV9knIvo6TDnNkwjuFsyXWTYgtO9FG
-----END CERTIFICATE-----
