Certificate:
    Data:
        Version: 3 (0x2)
        Serial Number: 1 (0x1)
    Signature Algorithm: sha1WithRSAEncryption
        Issuer: C=AU, ST=Western, O=Example LTD, OU=ExampleDep, CN=ca/emailAddress=ca@ca.com
        Validity
            Not Before: Jun 25 12:16:36 2013 GMT
            Not After : Jun 25 12:16:36 2015 GMT
        Subject: C=AU, ST=Western, O=Example LTD, OU=ExampleDep, CN=server/emailAddress=server@server.com
        Subject Public Key Info:
            Public Key Algorithm: rsaEncryption
                Public-Key: (1024 bit)
                Modulus:
                    00:bb:1c:6c:ae:4b:3a:81:5a:f8:34:b0:68:55:2b:
                    bb:e9:64:18:41:67:e0:d5:6c:90:5c:16:d1:7c:53:
                    cc:3b:90:c9:1d:db:07:86:08:ea:2d:78:be:0d:d6:
                    11:ce:57:52:85:86:3b:dd:26:90:0d:bd:e9:42:8e:
                    af:f1:3c:7c:1f:94:38:51:1b:1b:f1:67:a7:19:3f:
                    6b:69:34:44:6a:5a:85:25:64:f1:ce:c2:19:b4:3a:
                    a6:55:e7:ab:cc:30:4d:fa:00:8d:f5:f6:c2:e4:a9:
                    fe:94:17:ce:fb:e7:c5:a3:a4:cc:25:b6:2f:54:6d:
                    33:e6:4c:9f:09:b0:4c:5c:fb
                Exponent: 65537 (0x10001)
        X509v3 extensions:
            X509v3 Basic Constraints: 
                CA:FALSE
            Netscape Comment: 
                OpenSSL Generated Certificate
            X509v3 Subject Key Identifier: 
                C6:92:03:66:4A:BB:3F:8D:B5:19:92:D2:65:37:21:70:9B:C3:4B:BA
            X509v3 Authority Key Identifier: 
                DirName:/C=AU/ST=Western/O=Example LTD/OU=ExampleDep/CN=ca/emailAddress=ca@ca.com
                serial:E2:ED:39:8B:7C:9B:C9:82

    Signature Algorithm: sha1WithRSAEncryption
         25:ec:a0:95:39:bb:ea:57:c6:14:71:7c:55:98:c2:ac:d5:56:
         c2:e0:a4:94:57:6a:88:02:a9:02:6b:c3:9d:d1:88:95:5f:d2:
         8d:48:e6:30:4b:5e:3c:6a:54:96:5d:dd:7e:fd:1d:84:d3:f3:
         c8:9a:84:ba:42:cd:1e:3f:2f:df:c1:94:e9:55:93:97:cb:90:
         e9:80:9c:a0:57:79:de:ef:c7:84:72:e1:6c:cb:7f:97:d9:9f:
         78:0e:01:78:ea:2d:91:d6:62:df:55:b7:de:24:e6:fd:b0:ca:
         d1:89:6b:2e:a1:c2:34:0a:f7:12:4b:b0:f7:0d:01:1c:48:1b:
         e8:c5
-----BEGIN CERTIFICATE-----
MIIDUDCCArmgAwIBAgIBATANBgkqhkiG9w0BAQUFADBxMQswCQYDVQQGEwJBVTEQ
MA4GA1UECAwHV2VzdGVybjEUMBIGA1UECgwLRXhhbXBsZSBMVEQxEzARBgNVBAsM
CkV4YW1wbGVEZXAxCzAJBgNVBAMMAmNhMRgwFgYJKoZIhvcNAQkBFgljYUBjYS5j
b20wHhcNMTMwNjI1MTIxNjM2WhcNMTUwNjI1MTIxNjM2WjB9MQswCQYDVQQGEwJB
VTEQMA4GA1UECAwHV2VzdGVybjEUMBIGA1UECgwLRXhhbXBsZSBMVEQxEzARBgNV
BAsMCkV4YW1wbGVEZXAxDzANBgNVBAMMBnNlcnZlcjEgMB4GCSqGSIb3DQEJARYR
c2VydmVyQHNlcnZlci5jb20wgZ8wDQYJKoZIhvcNAQEBBQADgY0AMIGJAoGBALsc
bK5LOoFa+DSwaFUru+lkGEFn4NVskFwW0XxTzDuQyR3bB4YI6i14vg3WEc5XUoWG
O90mkA296UKOr/E8fB+UOFEbG/Fnpxk/a2k0RGpahSVk8c7CGbQ6plXnq8wwTfoA
jfX2wuSp/pQXzvvnxaOkzCW2L1RtM+ZMnwmwTFz7AgMBAAGjgeswgegwCQYDVR0T
BAIwADAsBglghkgBhvhCAQ0EHxYdT3BlblNTTCBHZW5lcmF0ZWQgQ2VydGlmaWNh
dGUwHQYDVR0OBBYEFMaSA2ZKuz+NtRmS0mU3IXCbw0u6MIGNBgNVHSMEgYUwgYKh
daRzMHExCzAJBgNVBAYTAkFVMRAwDgYDVQQIDAdXZXN0ZXJuMRQwEgYDVQQKDAtF
eGFtcGxlIExURDETMBEGA1UECwwKRXhhbXBsZURlcDELMAkGA1UEAwwCY2ExGDAW
BgkqhkiG9w0BCQEWCWNhQGNhLmNvbYIJAOLtOYt8m8mCMA0GCSqGSIb3DQEBBQUA
A4GBACXsoJU5u+pXxhRxfFWYwqzVVsLgpJRXaogCqQJrw53RiJVf0o1I5jBLXjxq
VJZd3X79HYTT88iahLpCzR4/L9/BlOlVk5fLkOmAnKBXed7vx4Ry4WzLf5fZn3gO
AXjqLZHWYt9Vt94k5v2wytGJay6hwjQK9xJLsPcNARxIG+jF
-----END CERTIFICATE-----
