Certificate:
    Data:
        Version: 3 (0x2)
        Serial Number: 0 (0x0)
    Signature Algorithm: sha1WithRSAEncryption
        Issuer: C=AU, ST=Western, O=Example LTD, OU=ExampleDep, CN=badbad/emailAddress=badbad@badbad.com
        Validity
            Not Before: Jun 26 18:29:42 2013 GMT
            Not After : Jun 26 18:29:42 2015 GMT
        Subject: C=AU, ST=Western, O=Example LTD, OU=ExampleDep, CN=client/emailAddress=client@client.com
        Subject Public Key Info:
            Public Key Algorithm: rsaEncryption
                Public-Key: (1024 bit)
                Modulus:
                    00:e2:53:ac:7d:33:0a:1e:6d:74:0c:67:c9:e9:8d:
                    26:eb:58:3c:83:86:17:40:21:e4:6a:fb:df:07:86:
                    ff:37:3b:e9:58:77:c6:35:8d:8a:dd:81:cf:b1:66:
                    42:5a:95:7b:e9:db:52:3e:5b:98:24:d8:6a:b9:e2:
                    96:d8:3f:04:70:b3:dd:68:1a:5d:9b:82:d2:24:64:
                    61:b9:4a:06:aa:0a:8e:6f:34:04:93:7b:d3:c2:39:
                    d0:37:ed:8f:b3:a1:a2:5b:91:df:1d:40:3a:10:8f:
                    fa:d9:ca:27:56:64:37:56:70:61:e4:b8:1a:7d:25:
                    8a:94:88:0a:17:38:0a:7c:13
                Exponent: 65537 (0x10001)
        X509v3 extensions:
            X509v3 Basic Constraints: 
                CA:FALSE
            Netscape Comment: 
                OpenSSL Generated Certificate
            X509v3 Subject Key Identifier: 
                10:24:2C:8B:78:F3:E5:DE:60:A7:17:2B:3B:45:57:5A:AD:F6:93:90
            X509v3 Authority Key Identifier: 
                DirName:/C=AU/ST=Western/O=Example LTD/OU=ExampleDep/CN=badbad/emailAddress=badbad@badbad.com
                serial:D6:D0:E8:1E:23:5C:E5:12

    Signature Algorithm: sha1WithRSAEncryption
         39:c8:98:b4:76:f3:1a:67:e7:f3:ad:f2:fb:7b:b0:9c:83:4f:
         af:5e:e6:7c:32:fc:22:a9:07:ca:e8:10:2c:7a:fc:9e:ff:1f:
         ee:ac:61:96:7a:fb:1d:69:26:2a:0a:00:9e:4a:3f:cb:56:0c:
         01:de:26:11:95:f5:ec:71:bc:94:55:5f:1b:ee:48:29:2a:e0:
         cd:ac:ba:05:40:c3:76:17:42:47:db:6a:52:72:ee:8b:a5:80:
         00:0c:60:4d:a6:9d:e5:bf:30:9e:a5:6a:ed:bf:90:35:17:bd:
         4a:71:7f:fa:41:2b:bd:bc:4e:bd:cf:cf:30:71:f5:f3:9e:9f:
         09:82
-----BEGIN CERTIFICATE-----
MIIDaTCCAtKgAwIBAgIBADANBgkqhkiG9w0BAQUFADB9MQswCQYDVQQGEwJBVTEQ
MA4GA1UECAwHV2VzdGVybjEUMBIGA1UECgwLRXhhbXBsZSBMVEQxEzARBgNVBAsM
CkV4YW1wbGVEZXAxDzANBgNVBAMMBmJhZGJhZDEgMB4GCSqGSIb3DQEJARYRYmFk
YmFkQGJhZGJhZC5jb20wHhcNMTMwNjI2MTgyOTQyWhcNMTUwNjI2MTgyOTQyWjB9
MQswCQYDVQQGEwJBVTEQMA4GA1UECAwHV2VzdGVybjEUMBIGA1UECgwLRXhhbXBs
ZSBMVEQxEzARBgNVBAsMCkV4YW1wbGVEZXAxDzANBgNVBAMMBmNsaWVudDEgMB4G
CSqGSIb3DQEJARYRY2xpZW50QGNsaWVudC5jb20wgZ8wDQYJKoZIhvcNAQEBBQAD
gY0AMIGJAoGBAOJTrH0zCh5tdAxnyemNJutYPIOGF0Ah5Gr73weG/zc76Vh3xjWN
it2Bz7FmQlqVe+nbUj5bmCTYarniltg/BHCz3WgaXZuC0iRkYblKBqoKjm80BJN7
08I50Dftj7OholuR3x1AOhCP+tnKJ1ZkN1ZwYeS4Gn0lipSIChc4CnwTAgMBAAGj
gfgwgfUwCQYDVR0TBAIwADAsBglghkgBhvhCAQ0EHxYdT3BlblNTTCBHZW5lcmF0
ZWQgQ2VydGlmaWNhdGUwHQYDVR0OBBYEFBAkLIt48+XeYKcXKztFV1qt9pOQMIGa
BgNVHSMEgZIwgY+hgYGkfzB9MQswCQYDVQQGEwJBVTEQMA4GA1UECAwHV2VzdGVy
bjEUMBIGA1UECgwLRXhhbXBsZSBMVEQxEzARBgNVBAsMCkV4YW1wbGVEZXAxDzAN
BgNVBAMMBmJhZGJhZDEgMB4GCSqGSIb3DQEJARYRYmFkYmFkQGJhZGJhZC5jb22C
CQDW0OgeI1zlEjANBgkqhkiG9w0BAQUFAAOBgQA5yJi0dvMaZ+fzrfL7e7Ccg0+v
XuZ8MvwiqQfK6BAsevye/x/urGGWevsdaSYqCgCeSj/LVgwB3iYRlfXscbyUVV8b
7kgpKuDNrLoFQMN2F0JH22pScu6LpYAADGBNpp3lvzCepWrtv5A1F71KcX/6QSu9
vE69z88wcfXznp8Jgg==
-----END CERTIFICATE-----
