Certificate:
    Data:
        Version: 3 (0x2)
        Serial Number: 1 (0x1)
    Signature Algorithm: sha1WithRSAEncryption
        Issuer: C=AU, ST=Western, O=Example LTD, OU=ExampleDep, CN=badbad/emailAddress=badbad@badbad.com
        Validity
            Not Before: Jun 26 18:29:42 2013 GMT
            Not After : Jun 26 18:29:42 2015 GMT
        Subject: C=AU, ST=Western, O=Example LTD, OU=ExampleDep, CN=server/emailAddress=server@server.com
        Subject Public Key Info:
            Public Key Algorithm: rsaEncryption
                Public-Key: (1024 bit)
                Modulus:
                    00:de:0e:4c:a9:0d:88:bb:b5:ef:da:cc:a0:cb:7d:
                    f2:b3:4d:07:12:48:29:4b:3d:fd:f3:f8:82:1b:3c:
                    f8:9c:f7:43:83:ad:0c:d3:a6:49:ca:26:2c:c5:b9:
                    e1:ba:f6:ee:dd:bf:ce:52:0a:2e:60:95:11:de:de:
                    3c:7f:9c:26:c5:bc:21:52:5c:f8:16:72:41:ca:76:
                    75:0f:f3:e2:88:d0:fd:0a:20:26:17:8c:3b:4f:91:
                    08:ac:25:1a:dc:fe:47:80:c2:e3:d8:96:3b:c4:ca:
                    fe:af:04:47:08:86:80:dc:c5:b5:46:41:a1:37:cd:
                    89:37:db:f7:81:66:f5:2b:55
                Exponent: 65537 (0x10001)
        X509v3 extensions:
            X509v3 Basic Constraints: 
                CA:FALSE
            Netscape Comment: 
                OpenSSL Generated Certificate
            X509v3 Subject Key Identifier: 
                C0:05:77:DB:11:57:87:59:CB:87:7E:48:47:DE:4A:DE:6D:91:DB:91
            X509v3 Authority Key Identifier: 
                DirName:/C=AU/ST=Western/O=Example LTD/OU=ExampleDep/CN=badbad/emailAddress=badbad@badbad.com
                serial:D6:D0:E8:1E:23:5C:E5:12

    Signature Algorithm: sha1WithRSAEncryption
         2a:c5:f2:28:9f:7a:6a:d2:d3:23:57:1b:ff:a9:32:d1:bf:ab:
         da:ec:a7:9c:8d:f0:5b:34:24:0d:db:03:1d:f2:e1:0f:4e:08:
         70:50:eb:b3:cb:2f:7e:4e:cc:26:d9:9a:8e:da:d3:6c:fd:9c:
         d5:c0:f8:de:7a:76:a2:16:09:4f:27:80:09:0f:67:1c:f9:26:
         30:93:e4:12:7a:81:f3:f6:25:41:e4:ab:17:5b:39:ba:25:c1:
         62:f0:93:54:30:cc:f6:15:b5:fd:cd:d6:8b:36:ce:03:f6:cf:
         59:8f:63:d1:3f:4a:3f:93:55:2d:3c:f5:af:a3:93:1a:44:0e:
         0a:41
-----BEGIN CERTIFICATE-----
MIIDaTCCAtKgAwIBAgIBATANBgkqhkiG9w0BAQUFADB9MQswCQYDVQQGEwJBVTEQ
MA4GA1UECAwHV2VzdGVybjEUMBIGA1UECgwLRXhhbXBsZSBMVEQxEzARBgNVBAsM
CkV4YW1wbGVEZXAxDzANBgNVBAMMBmJhZGJhZDEgMB4GCSqGSIb3DQEJARYRYmFk
YmFkQGJhZGJhZC5jb20wHhcNMTMwNjI2MTgyOTQyWhcNMTUwNjI2MTgyOTQyWjB9
MQswCQYDVQQGEwJBVTEQMA4GA1UECAwHV2VzdGVybjEUMBIGA1UECgwLRXhhbXBs
ZSBMVEQxEzARBgNVBAsMCkV4YW1wbGVEZXAxDzANBgNVBAMMBnNlcnZlcjEgMB4G
CSqGSIb3DQEJARYRc2VydmVyQHNlcnZlci5jb20wgZ8wDQYJKoZIhvcNAQEBBQAD
gY0AMIGJAoGBAN4OTKkNiLu179rMoMt98rNNBxJIKUs9/fP4ghs8+Jz3Q4OtDNOm
ScomLMW54br27t2/zlIKLmCVEd7ePH+cJsW8IVJc+BZyQcp2dQ/z4ojQ/QogJheM
O0+RCKwlGtz+R4DC49iWO8TK/q8ERwiGgNzFtUZBoTfNiTfb94Fm9StVAgMBAAGj
gfgwgfUwCQYDVR0TBAIwADAsBglghkgBhvhCAQ0EHxYdT3BlblNTTCBHZW5lcmF0
ZWQgQ2VydGlmaWNhdGUwHQYDVR0OBBYEFMAFd9sRV4dZy4d+SEfeSt5tkduRMIGa
BgNVHSMEgZIwgY+hgYGkfzB9MQswCQYDVQQGEwJBVTEQMA4GA1UECAwHV2VzdGVy
bjEUMBIGA1UECgwLRXhhbXBsZSBMVEQxEzARBgNVBAsMCkV4YW1wbGVEZXAxDzAN
BgNVBAMMBmJhZGJhZDEgMB4GCSqGSIb3DQEJARYRYmFkYmFkQGJhZGJhZC5jb22C
CQDW0OgeI1zlEjANBgkqhkiG9w0BAQUFAAOBgQAqxfIon3pq0tMjVxv/qTLRv6va
7KecjfBbNCQN2wMd8uEPTghwUOuzyy9+Tswm2ZqO2tNs/ZzVwPjeenaiFglPJ4AJ
D2cc+SYwk+QSeoHz9iVB5KsXWzm6JcFi8JNUMMz2FbX9zdaLNs4D9s9Zj2PRP0o/
k1UtPPWvo5MaRA4KQQ==
-----END CERTIFICATE-----
